(lp0
(lp1
S'message from @James Petullo: email:jpetullo14@gmail.com, subject:Testing new message system, send at:1/13/2018 at 13:26:20) message:Hello,\r\n   \r\n     Currently, we are testing our message system'
p2
aS'\n                    <html>\n                        <head>\n                        <link rel="stylesheet" href="https://cdnjs.cloudflare.com/ajax/libs/font-awesome/4.7.0/css/font-awesome.min.css">\n                      <meta name="viewport" content="width=device-width, initial-scale=1">\n                      <link rel="stylesheet" href="https://maxcdn.bootstrapcdn.com/bootstrap/4.0.0-beta.2/css/bootstrap.min.css">\n                      <script src="https://ajax.googleapis.com/ajax/libs/jquery/3.2.1/jquery.min.js"></script>\n                      <script src="https://cdnjs.cloudflare.com/ajax/libs/popper.js/1.12.6/umd/popper.min.js"></script>\n                      <script src="https://maxcdn.bootstrapcdn.com/bootstrap/4.0.0-beta.2/js/bootstrap.min.js"></script>\n                      <script defer src="https://use.fontawesome.com/releases/v5.0.2/js/all.js"></script>\n                      <script src="http://code.jquery.com/jquery-1.10.1.min.js"></script>\n                        </head>\n                        <body>\n\n\n                            <ul class="list-group">\n                                <li class="list-group-item active">user info</li>\n                                <li class="list-group-item">jpetullo14@gmail.com</li>\n                                <li class="list-group-item">James Petullo</li>\n                                <li class="list-group-item">send at: 1/13/2018 at 13:26:20</li>\n                            </ul>\n\n                            <div class="card w-75">\n                                <div class="card-body">\n                                <h5 class="card-title">Testing new message system</h5>\n                                <p class="card-text">Hello,\r\n   \r\n     Currently, we are testing our message system</p>\n                                <a href="mailto:jpetullo14@gmail.com" target="_top" class="btn btn-primary">Respond</a>\n                            </div>\n                            </div>\n                        </body>\n                    </html>\n                    '
p3
aa(lp4
S'message from @James Petullo: email:jpetullo14@gmail.com, subject:New message, send at:1/13/2018 at 13:27:40) message:Hello,\r\n\r\n     This is another test.\r\n\r\nSincerely,\r\nJames Petullo'
p5
aS'\n                    <html>\n                        <head>\n                        <link rel="stylesheet" href="https://cdnjs.cloudflare.com/ajax/libs/font-awesome/4.7.0/css/font-awesome.min.css">\n                      <meta name="viewport" content="width=device-width, initial-scale=1">\n                      <link rel="stylesheet" href="https://maxcdn.bootstrapcdn.com/bootstrap/4.0.0-beta.2/css/bootstrap.min.css">\n                      <script src="https://ajax.googleapis.com/ajax/libs/jquery/3.2.1/jquery.min.js"></script>\n                      <script src="https://cdnjs.cloudflare.com/ajax/libs/popper.js/1.12.6/umd/popper.min.js"></script>\n                      <script src="https://maxcdn.bootstrapcdn.com/bootstrap/4.0.0-beta.2/js/bootstrap.min.js"></script>\n                      <script defer src="https://use.fontawesome.com/releases/v5.0.2/js/all.js"></script>\n                      <script src="http://code.jquery.com/jquery-1.10.1.min.js"></script>\n                        </head>\n                        <body>\n\n\n                            <ul class="list-group">\n                                <li class="list-group-item active">user info</li>\n                                <li class="list-group-item">jpetullo14@gmail.com</li>\n                                <li class="list-group-item">James Petullo</li>\n                                <li class="list-group-item">send at: 1/13/2018 at 13:27:40</li>\n                            </ul>\n\n                            <div class="card w-75">\n                                <div class="card-body">\n                                <h5 class="card-title">New message</h5>\n                                <p class="card-text">Hello,\r\n\r\n     This is another test.\r\n\r\nSincerely,\r\nJames Petullo</p>\n                                <a href="mailto:jpetullo14@gmail.com" target="_top" class="btn btn-primary">Respond</a>\n                            </div>\n                            </div>\n                        </body>\n                    </html>\n                    '
p6
aa.